ARM GAS  C:\Users\K-Narf\AppData\Local\Temp\ccKltRTg.s 			page 1


   1              		.syntax unified
   2              		.cpu cortex-m0
   3              		.fpu softvfp
   4              		.eabi_attribute 20, 1
   5              		.eabi_attribute 21, 1
   6              		.eabi_attribute 23, 3
   7              		.eabi_attribute 24, 1
   8              		.eabi_attribute 25, 1
   9              		.eabi_attribute 26, 1
  10              		.eabi_attribute 30, 6
  11              		.eabi_attribute 34, 0
  12              		.eabi_attribute 18, 4
  13              		.thumb
  14              		.syntax unified
  15              		.file	"main.c"
  16              		.text
  17              	.Ltext0:
  18              		.cfi_sections	.debug_frame
  19              		.section	.rodata
  20              		.align	2
  21              	.LC2:
  22 0000 434F4D50 		.ascii	"COMP Current is: %lu\012\000"
  22      20437572 
  22      72656E74 
  22      2069733A 
  22      20256C75 
  23 0016 0000     		.align	2
  24              	.LC4:
  25 0018 48494748 		.ascii	"HIGH FAN Current is: %lu\012\000"
  25      2046414E 
  25      20437572 
  25      72656E74 
  25      2069733A 
  26 0032 0000     		.align	2
  27              	.LC6:
  28 0034 4C4F5720 		.ascii	"LOW FAN Current is: %lu\012\012\000"
  28      46414E20 
  28      43757272 
  28      656E7420 
  28      69733A20 
  29 004e 0000     		.align	2
  30              	.LC0:
  31 0050 74       		.byte	116
  32 0051 75       		.byte	117
  33 0052 76       		.byte	118
  34              		.section	.text.main,"ax",%progbits
  35              		.align	2
  36              		.global	main
  37              		.code	16
  38              		.thumb_func
  39              		.type	main, %function
  40              	main:
  41              	.LFB36:
  42              		.file 1 "main.c"
   1:main.c        **** /* ========================================
   2:main.c        ****  *
   3:main.c        ****  * Copyright YOUR COMPANY, THE YEAR
ARM GAS  C:\Users\K-Narf\AppData\Local\Temp\ccKltRTg.s 			page 2


   4:main.c        ****  * All Rights Reserved
   5:main.c        ****  * UNPUBLISHED, LICENSED SOFTWARE.
   6:main.c        ****  *
   7:main.c        ****  * CONFIDENTIAL AND PROPRIETARY INFORMATION
   8:main.c        ****  * WHICH IS THE PROPERTY OF your company.
   9:main.c        ****  *
  10:main.c        ****  * ========================================
  11:main.c        **** */
  12:main.c        **** #include <project.h>
  13:main.c        **** #include <stdio.h>
  14:main.c        **** #include <stdlib.h>
  15:main.c        **** 
  16:main.c        **** 
  17:main.c        **** #define POWER_CHIP_COMP             (0x74)
  18:main.c        **** #define POWER_CHIP_HIGH_FAN         (0x75)
  19:main.c        **** #define POWER_CHIP_LOW_FAN          (0x76)
  20:main.c        **** #define POWER_CHIP_HEADER_BYTE      (0xA5)
  21:main.c        **** #define POWER_CHIP_READ             (0x4E)
  22:main.c        **** #define POWER_CHIP_WRITE            (0x4D)
  23:main.c        **** #define POWER_CHIP_SET_ADD_PTR      (0x41)
  24:main.c        **** #define POWER_CHIP_AUTO_GAIN_CAL    (0x5A)
  25:main.c        **** #define POWER_CHIP_AUTO_FREQ_CAL    (0x7A)
  26:main.c        **** #define POWER_CHIP_AUTO_REAC_GAIN   (0x41)
  27:main.c        **** #define POWER_CHIP_GEN_HIGH_ADDRESS (0x0C)
  28:main.c        **** #define POWER_CHIP_LOW_VRMS_ADDRESS (0x06)
  29:main.c        **** #define POWER_CHIP_LOW_IRMS_ADDRESS (0x0E)
  30:main.c        **** #define POWER_CHIP_AUTO_REAC_GAIN   (0x41)
  31:main.c        **** #define POWER_CHIP_READ_REGISTER    (0x4E)
  32:main.c        **** #define POWER_CHIP_CHECKSUM         (0x5E)
  33:main.c        **** 
  34:main.c        **** 
  35:main.c        **** int main (void)
  36:main.c        **** {
  43              		.loc 1 36 0
  44              		.cfi_startproc
  45              		@ args = 0, pretend = 0, frame = 72
  46              		@ frame_needed = 1, uses_anonymous_args = 0
  47 0000 80B5     		push	{r7, lr}
  48              		.cfi_def_cfa_offset 8
  49              		.cfi_offset 7, -8
  50              		.cfi_offset 14, -4
  51 0002 92B0     		sub	sp, sp, #72
  52              		.cfi_def_cfa_offset 80
  53 0004 00AF     		add	r7, sp, #0
  54              		.cfi_def_cfa_register 7
  37:main.c        ****     /* Place your initialization/startup code here (e.g. MyInst_Start()) */
  38:main.c        ****     char str[50];
  39:main.c        ****     uint32_t result;
  40:main.c        ****     uint8_t resbyte4;
  41:main.c        ****     uint8_t resbyte3;
  42:main.c        ****     uint8_t resbyte2;
  43:main.c        ****     uint8_t resbyte1;
  44:main.c        ****     int i;
  45:main.c        ****     GREEN_Write(0);
  55              		.loc 1 45 0
  56 0006 0020     		movs	r0, #0
  57 0008 FFF7FEFF 		bl	GREEN_Write
ARM GAS  C:\Users\K-Narf\AppData\Local\Temp\ccKltRTg.s 			page 3


  46:main.c        ****     CyDelay(1000);
  58              		.loc 1 46 0
  59 000c FA23     		movs	r3, #250
  60 000e 9B00     		lsls	r3, r3, #2
  61 0010 1800     		movs	r0, r3
  62 0012 FFF7FEFF 		bl	CyDelay
  47:main.c        ****     GREEN_Write(1);
  63              		.loc 1 47 0
  64 0016 0120     		movs	r0, #1
  65 0018 FFF7FEFF 		bl	GREEN_Write
  48:main.c        ****     COMP_CB_Write(1);
  66              		.loc 1 48 0
  67 001c 0120     		movs	r0, #1
  68 001e FFF7FEFF 		bl	COMP_CB_Write
  49:main.c        ****     HF_CB_Write(1);
  69              		.loc 1 49 0
  70 0022 0120     		movs	r0, #1
  71 0024 FFF7FEFF 		bl	HF_CB_Write
  50:main.c        ****     LF_CB_Write(1);
  72              		.loc 1 50 0
  73 0028 0120     		movs	r0, #1
  74 002a FFF7FEFF 		bl	LF_CB_Write
  51:main.c        ****     COMP_Relay_Write(0);
  75              		.loc 1 51 0
  76 002e 0020     		movs	r0, #0
  77 0030 FFF7FEFF 		bl	COMP_Relay_Write
  52:main.c        ****     HF_Relay_Write(0);
  78              		.loc 1 52 0
  79 0034 0020     		movs	r0, #0
  80 0036 FFF7FEFF 		bl	HF_Relay_Write
  53:main.c        ****     LF_Relay_Write(0);
  81              		.loc 1 53 0
  82 003a 0020     		movs	r0, #0
  83 003c FFF7FEFF 		bl	LF_Relay_Write
  54:main.c        ****     
  55:main.c        ****     BLUE_Write(0);
  84              		.loc 1 55 0
  85 0040 0020     		movs	r0, #0
  86 0042 FFF7FEFF 		bl	BLUE_Write
  56:main.c        ****     RED_Write(0);
  87              		.loc 1 56 0
  88 0046 0020     		movs	r0, #0
  89 0048 FFF7FEFF 		bl	RED_Write
  57:main.c        ****     CyDelay(1000);
  90              		.loc 1 57 0
  91 004c FA23     		movs	r3, #250
  92 004e 9B00     		lsls	r3, r3, #2
  93 0050 1800     		movs	r0, r3
  94 0052 FFF7FEFF 		bl	CyDelay
  58:main.c        ****     
  59:main.c        ****     BLUE_Write(0);
  95              		.loc 1 59 0
  96 0056 0020     		movs	r0, #0
  97 0058 FFF7FEFF 		bl	BLUE_Write
  60:main.c        ****     RED_Write(0);
  98              		.loc 1 60 0
  99 005c 0020     		movs	r0, #0
ARM GAS  C:\Users\K-Narf\AppData\Local\Temp\ccKltRTg.s 			page 4


 100 005e FFF7FEFF 		bl	RED_Write
  61:main.c        ****     CyDelay(1000);
 101              		.loc 1 61 0
 102 0062 FA23     		movs	r3, #250
 103 0064 9B00     		lsls	r3, r3, #2
 104 0066 1800     		movs	r0, r3
 105 0068 FFF7FEFF 		bl	CyDelay
  62:main.c        ****     VR_EN_Write(1);
 106              		.loc 1 62 0
 107 006c 0120     		movs	r0, #1
 108 006e FFF7FEFF 		bl	VR_EN_Write
  63:main.c        ****     uint8_t powerAddresses[3] = {POWER_CHIP_COMP, POWER_CHIP_HIGH_FAN, POWER_CHIP_LOW_FAN};
 109              		.loc 1 63 0
 110 0072 3A1D     		adds	r2, r7, #4
 111 0074 524B     		ldr	r3, .L11
 112 0076 1000     		movs	r0, r2
 113 0078 1900     		movs	r1, r3
 114 007a 0323     		movs	r3, #3
 115 007c 1A00     		movs	r2, r3
 116 007e FFF7FEFF 		bl	memcpy
 117              	.L10:
  64:main.c        ****     /* CyGlobalIntEnable; */ /* Uncomment this line to enable global interrupts. */
  65:main.c        ****     for(;;)
  66:main.c        ****     {
  67:main.c        ****         for(i=0;i<3;i++){
 118              		.loc 1 67 0
 119 0082 0023     		movs	r3, #0
 120 0084 7B64     		str	r3, [r7, #68]
 121 0086 96E0     		b	.L2
 122              	.L9:
  68:main.c        ****             /* Place your application code here. */
  69:main.c        ****             I2C_1_I2CMasterSendStart(powerAddresses[i], I2C_1_I2C_READ_XFER_MODE, 100u);
 123              		.loc 1 69 0
 124 0088 3A1D     		adds	r2, r7, #4
 125 008a 7B6C     		ldr	r3, [r7, #68]
 126 008c D318     		adds	r3, r2, r3
 127 008e 1B78     		ldrb	r3, [r3]
 128 0090 6422     		movs	r2, #100
 129 0092 0121     		movs	r1, #1
 130 0094 1800     		movs	r0, r3
 131 0096 FFF7FEFF 		bl	I2C_1_I2CMasterSendStart
  70:main.c        ****             I2C_1_I2CMasterWriteByte(POWER_CHIP_HEADER_BYTE, 100u);
 132              		.loc 1 70 0
 133 009a 6421     		movs	r1, #100
 134 009c A520     		movs	r0, #165
 135 009e FFF7FEFF 		bl	I2C_1_I2CMasterWriteByte
  71:main.c        ****             I2C_1_I2CMasterWriteByte(0x08, 100u);
 136              		.loc 1 71 0
 137 00a2 6421     		movs	r1, #100
 138 00a4 0820     		movs	r0, #8
 139 00a6 FFF7FEFF 		bl	I2C_1_I2CMasterWriteByte
  72:main.c        ****             I2C_1_I2CMasterWriteByte(POWER_CHIP_SET_ADD_PTR, 100u);
 140              		.loc 1 72 0
 141 00aa 6421     		movs	r1, #100
 142 00ac 4120     		movs	r0, #65
 143 00ae FFF7FEFF 		bl	I2C_1_I2CMasterWriteByte
  73:main.c        ****             I2C_1_I2CMasterWriteByte(POWER_CHIP_GEN_HIGH_ADDRESS, 100u);
ARM GAS  C:\Users\K-Narf\AppData\Local\Temp\ccKltRTg.s 			page 5


 144              		.loc 1 73 0
 145 00b2 6421     		movs	r1, #100
 146 00b4 0C20     		movs	r0, #12
 147 00b6 FFF7FEFF 		bl	I2C_1_I2CMasterWriteByte
  74:main.c        ****             I2C_1_I2CMasterWriteByte(POWER_CHIP_LOW_IRMS_ADDRESS, 100u);
 148              		.loc 1 74 0
 149 00ba 6421     		movs	r1, #100
 150 00bc 0E20     		movs	r0, #14
 151 00be FFF7FEFF 		bl	I2C_1_I2CMasterWriteByte
  75:main.c        ****             I2C_1_I2CMasterWriteByte(POWER_CHIP_READ_REGISTER, 100u);
 152              		.loc 1 75 0
 153 00c2 6421     		movs	r1, #100
 154 00c4 4E20     		movs	r0, #78
 155 00c6 FFF7FEFF 		bl	I2C_1_I2CMasterWriteByte
  76:main.c        ****             I2C_1_I2CMasterWriteByte(0x04, 100u);
 156              		.loc 1 76 0
 157 00ca 6421     		movs	r1, #100
 158 00cc 0420     		movs	r0, #4
 159 00ce FFF7FEFF 		bl	I2C_1_I2CMasterWriteByte
  77:main.c        ****             I2C_1_I2CMasterWriteByte(POWER_CHIP_CHECKSUM, 100u);
 160              		.loc 1 77 0
 161 00d2 6421     		movs	r1, #100
 162 00d4 5E20     		movs	r0, #94
 163 00d6 FFF7FEFF 		bl	I2C_1_I2CMasterWriteByte
  78:main.c        ****             I2C_1_I2CMasterReadByte(I2C_1_I2C_NAK_DATA,(uint8 *) &resbyte4,100u);
 164              		.loc 1 78 0
 165 00da 0B23     		movs	r3, #11
 166 00dc FB18     		adds	r3, r7, r3
 167 00de 6422     		movs	r2, #100
 168 00e0 1900     		movs	r1, r3
 169 00e2 0120     		movs	r0, #1
 170 00e4 FFF7FEFF 		bl	I2C_1_I2CMasterReadByte
  79:main.c        ****             I2C_1_I2CMasterReadByte(I2C_1_I2C_NAK_DATA,(uint8 *) &resbyte3,100u);
 171              		.loc 1 79 0
 172 00e8 0A23     		movs	r3, #10
 173 00ea FB18     		adds	r3, r7, r3
 174 00ec 6422     		movs	r2, #100
 175 00ee 1900     		movs	r1, r3
 176 00f0 0120     		movs	r0, #1
 177 00f2 FFF7FEFF 		bl	I2C_1_I2CMasterReadByte
  80:main.c        ****             I2C_1_I2CMasterReadByte(I2C_1_I2C_NAK_DATA,(uint8 *) &resbyte2,100u);
 178              		.loc 1 80 0
 179 00f6 0923     		movs	r3, #9
 180 00f8 FB18     		adds	r3, r7, r3
 181 00fa 6422     		movs	r2, #100
 182 00fc 1900     		movs	r1, r3
 183 00fe 0120     		movs	r0, #1
 184 0100 FFF7FEFF 		bl	I2C_1_I2CMasterReadByte
  81:main.c        ****             I2C_1_I2CMasterReadByte(I2C_1_I2C_NAK_DATA,(uint8 *) &resbyte1,100u);
 185              		.loc 1 81 0
 186 0104 0823     		movs	r3, #8
 187 0106 FB18     		adds	r3, r7, r3
 188 0108 6422     		movs	r2, #100
 189 010a 1900     		movs	r1, r3
 190 010c 0120     		movs	r0, #1
 191 010e FFF7FEFF 		bl	I2C_1_I2CMasterReadByte
  82:main.c        ****             I2C_1_I2CMasterSendStop(100u);
ARM GAS  C:\Users\K-Narf\AppData\Local\Temp\ccKltRTg.s 			page 6


 192              		.loc 1 82 0
 193 0112 6420     		movs	r0, #100
 194 0114 FFF7FEFF 		bl	I2C_1_I2CMasterSendStop
  83:main.c        ****             result = (resbyte4 << 24) || (resbyte4 << 16) || (resbyte4 << 8) || resbyte1;
 195              		.loc 1 83 0
 196 0118 0B23     		movs	r3, #11
 197 011a FB18     		adds	r3, r7, r3
 198 011c 1B78     		ldrb	r3, [r3]
 199 011e 1B06     		lsls	r3, r3, #24
 200 0120 0ED1     		bne	.L3
 201              		.loc 1 83 0 is_stmt 0 discriminator 2
 202 0122 0B23     		movs	r3, #11
 203 0124 FB18     		adds	r3, r7, r3
 204 0126 1B78     		ldrb	r3, [r3]
 205 0128 1B04     		lsls	r3, r3, #16
 206 012a 09D1     		bne	.L3
 207              		.loc 1 83 0 discriminator 4
 208 012c 0B23     		movs	r3, #11
 209 012e FB18     		adds	r3, r7, r3
 210 0130 1B78     		ldrb	r3, [r3]
 211 0132 1B02     		lsls	r3, r3, #8
 212 0134 04D1     		bne	.L3
 213              		.loc 1 83 0 discriminator 6
 214 0136 0823     		movs	r3, #8
 215 0138 FB18     		adds	r3, r7, r3
 216 013a 1B78     		ldrb	r3, [r3]
 217 013c 002B     		cmp	r3, #0
 218 013e 01D0     		beq	.L4
 219              	.L3:
 220              		.loc 1 83 0 discriminator 7
 221 0140 0123     		movs	r3, #1
 222 0142 00E0     		b	.L5
 223              	.L4:
 224              		.loc 1 83 0 discriminator 8
 225 0144 0023     		movs	r3, #0
 226              	.L5:
 227              		.loc 1 83 0 discriminator 10
 228 0146 3B64     		str	r3, [r7, #64]
  84:main.c        ****             if(i == 0){
 229              		.loc 1 84 0 is_stmt 1 discriminator 10
 230 0148 7B6C     		ldr	r3, [r7, #68]
 231 014a 002B     		cmp	r3, #0
 232 014c 0CD1     		bne	.L6
  85:main.c        ****                 sprintf(str, "COMP Current is: %lu\n", result);
 233              		.loc 1 85 0
 234 014e 3A6C     		ldr	r2, [r7, #64]
 235 0150 1C49     		ldr	r1, .L11+4
 236 0152 0C23     		movs	r3, #12
 237 0154 FB18     		adds	r3, r7, r3
 238 0156 1800     		movs	r0, r3
 239 0158 FFF7FEFF 		bl	sprintf
  86:main.c        ****                 MyUART_1_PutString(str);
 240              		.loc 1 86 0
 241 015c 0C23     		movs	r3, #12
 242 015e FB18     		adds	r3, r7, r3
 243 0160 1800     		movs	r0, r3
 244 0162 FFF7FEFF 		bl	MyUART_1_PutString
ARM GAS  C:\Users\K-Narf\AppData\Local\Temp\ccKltRTg.s 			page 7


 245 0166 1EE0     		b	.L7
 246              	.L6:
  87:main.c        ****             }
  88:main.c        ****             else if(i == 1){
 247              		.loc 1 88 0
 248 0168 7B6C     		ldr	r3, [r7, #68]
 249 016a 012B     		cmp	r3, #1
 250 016c 0CD1     		bne	.L8
  89:main.c        ****                 sprintf(str, "HIGH FAN Current is: %lu\n", result);
 251              		.loc 1 89 0
 252 016e 3A6C     		ldr	r2, [r7, #64]
 253 0170 1549     		ldr	r1, .L11+8
 254 0172 0C23     		movs	r3, #12
 255 0174 FB18     		adds	r3, r7, r3
 256 0176 1800     		movs	r0, r3
 257 0178 FFF7FEFF 		bl	sprintf
  90:main.c        ****                 MyUART_1_PutString(str);
 258              		.loc 1 90 0
 259 017c 0C23     		movs	r3, #12
 260 017e FB18     		adds	r3, r7, r3
 261 0180 1800     		movs	r0, r3
 262 0182 FFF7FEFF 		bl	MyUART_1_PutString
 263 0186 0EE0     		b	.L7
 264              	.L8:
  91:main.c        ****             }
  92:main.c        ****             else if(i == 2){
 265              		.loc 1 92 0
 266 0188 7B6C     		ldr	r3, [r7, #68]
 267 018a 022B     		cmp	r3, #2
 268 018c 0BD1     		bne	.L7
  93:main.c        ****                 sprintf(str, "LOW FAN Current is: %lu\n\n", result);
 269              		.loc 1 93 0
 270 018e 3A6C     		ldr	r2, [r7, #64]
 271 0190 0E49     		ldr	r1, .L11+12
 272 0192 0C23     		movs	r3, #12
 273 0194 FB18     		adds	r3, r7, r3
 274 0196 1800     		movs	r0, r3
 275 0198 FFF7FEFF 		bl	sprintf
  94:main.c        ****                 MyUART_1_PutString(str);
 276              		.loc 1 94 0
 277 019c 0C23     		movs	r3, #12
 278 019e FB18     		adds	r3, r7, r3
 279 01a0 1800     		movs	r0, r3
 280 01a2 FFF7FEFF 		bl	MyUART_1_PutString
 281              	.L7:
  95:main.c        ****             }
  96:main.c        ****             CyDelay(1000);
 282              		.loc 1 96 0 discriminator 2
 283 01a6 FA23     		movs	r3, #250
 284 01a8 9B00     		lsls	r3, r3, #2
 285 01aa 1800     		movs	r0, r3
 286 01ac FFF7FEFF 		bl	CyDelay
  67:main.c        ****             /* Place your application code here. */
 287              		.loc 1 67 0 discriminator 2
 288 01b0 7B6C     		ldr	r3, [r7, #68]
 289 01b2 0133     		adds	r3, r3, #1
 290 01b4 7B64     		str	r3, [r7, #68]
ARM GAS  C:\Users\K-Narf\AppData\Local\Temp\ccKltRTg.s 			page 8


 291              	.L2:
  67:main.c        ****             /* Place your application code here. */
 292              		.loc 1 67 0 is_stmt 0 discriminator 1
 293 01b6 7B6C     		ldr	r3, [r7, #68]
 294 01b8 022B     		cmp	r3, #2
 295 01ba 00DC     		bgt	.LCB216
 296 01bc 64E7     		b	.L9	@long jump
 297              	.LCB216:
  97:main.c        ****         }
  98:main.c        ****     }
 298              		.loc 1 98 0 is_stmt 1
 299 01be 60E7     		b	.L10
 300              	.L12:
 301              		.align	2
 302              	.L11:
 303 01c0 50000000 		.word	.LC0
 304 01c4 00000000 		.word	.LC2
 305 01c8 18000000 		.word	.LC4
 306 01cc 34000000 		.word	.LC6
 307              		.cfi_endproc
 308              	.LFE36:
 309              		.size	main, .-main
 310              		.text
 311              	.Letext0:
 312              		.file 2 "c:\\program files (x86)\\cypress\\psoc creator\\4.2\\psoc creator\\import\\gnu\\arm\\5.4.
 313              		.file 3 "c:\\program files (x86)\\cypress\\psoc creator\\4.2\\psoc creator\\import\\gnu\\arm\\5.4.
 314              		.file 4 "Generated_Source\\PSoC4/cytypes.h"