ARM GAS  C:\Users\K-Narf\AppData\Local\Temp\cc1QIEPb.s 			page 1


   1              		.syntax unified
   2              		.cpu cortex-m0
   3              		.fpu softvfp
   4              		.eabi_attribute 20, 1
   5              		.eabi_attribute 21, 1
   6              		.eabi_attribute 23, 3
   7              		.eabi_attribute 24, 1
   8              		.eabi_attribute 25, 1
   9              		.eabi_attribute 26, 1
  10              		.eabi_attribute 30, 6
  11              		.eabi_attribute 34, 0
  12              		.eabi_attribute 18, 4
  13              		.thumb
  14              		.syntax unified
  15              		.file	"main.c"
  16              		.text
  17              	.Ltext0:
  18              		.cfi_sections	.debug_frame
  19              		.section	.rodata
  20              		.align	2
  21              	.LC0:
  22 0000 03       		.byte	3
  23 0001 FF       		.byte	-1
  24              		.section	.text.main,"ax",%progbits
  25              		.align	2
  26              		.global	main
  27              		.code	16
  28              		.thumb_func
  29              		.type	main, %function
  30              	main:
  31              	.LFB35:
  32              		.file 1 "main.c"
   1:main.c        **** /* ========================================
   2:main.c        ****  *
   3:main.c        ****  * Copyright YOUR COMPANY, THE YEAR
   4:main.c        ****  * All Rights Reserved
   5:main.c        ****  * UNPUBLISHED, LICENSED SOFTWARE.
   6:main.c        ****  *
   7:main.c        ****  * CONFIDENTIAL AND PROPRIETARY INFORMATION
   8:main.c        ****  * WHICH IS THE PROPERTY OF your company.
   9:main.c        ****  *
  10:main.c        ****  * ========================================
  11:main.c        **** */
  12:main.c        **** #include <project.h>
  13:main.c        **** 
  14:main.c        **** #define ADDR (0x70)
  15:main.c        **** #define REG_INPUT (0x00)
  16:main.c        **** #define REG_CONFIG (0x03)
  17:main.c        **** 
  18:main.c        **** 
  19:main.c        **** 
  20:main.c        **** 
  21:main.c        **** 
  22:main.c        **** int main (void)
  23:main.c        **** {
  33              		.loc 1 23 0
  34              		.cfi_startproc
ARM GAS  C:\Users\K-Narf\AppData\Local\Temp\cc1QIEPb.s 			page 2


  35              		@ args = 0, pretend = 0, frame = 16
  36              		@ frame_needed = 1, uses_anonymous_args = 0
  37 0000 80B5     		push	{r7, lr}
  38              		.cfi_def_cfa_offset 8
  39              		.cfi_offset 7, -8
  40              		.cfi_offset 14, -4
  41 0002 84B0     		sub	sp, sp, #16
  42              		.cfi_def_cfa_offset 24
  43 0004 00AF     		add	r7, sp, #0
  44              		.cfi_def_cfa_register 7
  24:main.c        ****     
  25:main.c        ****     RED_Write(1);
  45              		.loc 1 25 0
  46 0006 0120     		movs	r0, #1
  47 0008 FFF7FEFF 		bl	RED_Write
  26:main.c        ****     GREEN_Write(1);
  48              		.loc 1 26 0
  49 000c 0120     		movs	r0, #1
  50 000e FFF7FEFF 		bl	GREEN_Write
  27:main.c        ****     BLUE_Write(1);
  51              		.loc 1 27 0
  52 0012 0120     		movs	r0, #1
  53 0014 FFF7FEFF 		bl	BLUE_Write
  28:main.c        ****     CyDelay(200);
  54              		.loc 1 28 0
  55 0018 C820     		movs	r0, #200
  56 001a FFF7FEFF 		bl	CyDelay
  29:main.c        ****     GREEN_Write(0);
  57              		.loc 1 29 0
  58 001e 0020     		movs	r0, #0
  59 0020 FFF7FEFF 		bl	GREEN_Write
  30:main.c        ****     CyDelay(200);
  60              		.loc 1 30 0
  61 0024 C820     		movs	r0, #200
  62 0026 FFF7FEFF 		bl	CyDelay
  31:main.c        ****     GREEN_Write(1);
  63              		.loc 1 31 0
  64 002a 0120     		movs	r0, #1
  65 002c FFF7FEFF 		bl	GREEN_Write
  32:main.c        ****     CyDelay(200);
  66              		.loc 1 32 0
  67 0030 C820     		movs	r0, #200
  68 0032 FFF7FEFF 		bl	CyDelay
  33:main.c        ****     GREEN_Write(0);
  69              		.loc 1 33 0
  70 0036 0020     		movs	r0, #0
  71 0038 FFF7FEFF 		bl	GREEN_Write
  34:main.c        ****     CyDelay(200);
  72              		.loc 1 34 0
  73 003c C820     		movs	r0, #200
  74 003e FFF7FEFF 		bl	CyDelay
  35:main.c        ****     GREEN_Write(0);
  75              		.loc 1 35 0
  76 0042 0020     		movs	r0, #0
  77 0044 FFF7FEFF 		bl	GREEN_Write
  36:main.c        ****     CyDelay(200);
  78              		.loc 1 36 0
ARM GAS  C:\Users\K-Narf\AppData\Local\Temp\cc1QIEPb.s 			page 3


  79 0048 C820     		movs	r0, #200
  80 004a FFF7FEFF 		bl	CyDelay
  37:main.c        ****     GREEN_Write(1);
  81              		.loc 1 37 0
  82 004e 0120     		movs	r0, #1
  83 0050 FFF7FEFF 		bl	GREEN_Write
  38:main.c        ****     CyDelay(200);
  84              		.loc 1 38 0
  85 0054 C820     		movs	r0, #200
  86 0056 FFF7FEFF 		bl	CyDelay
  39:main.c        ****     /* Place your initialization/startup code here (e.g. MyInst_Start()) */
  40:main.c        **** 
  41:main.c        ****     /* CyGlobalIntEnable; */ /* Uncomment this line to enable global interrupts. */ 
  42:main.c        ****     I2C_1_Start();
  87              		.loc 1 42 0
  88 005a FFF7FEFF 		bl	I2C_1_Start
  43:main.c        ****     //I2C_1_EnableInt(); 
  44:main.c        ****     //I2C_MasterClearStatus();
  45:main.c        ****     //CYGlobalIntEnable; 
  46:main.c        ****     //CEPIN_Write(1);
  47:main.c        ****     
  48:main.c        ****     uint8 write_buff[2] ={REG_CONFIG, 0xFF};
  89              		.loc 1 48 0
  90 005e 0823     		movs	r3, #8
  91 0060 FA18     		adds	r2, r7, r3
  92 0062 514B     		ldr	r3, .L14
  93 0064 1000     		movs	r0, r2
  94 0066 1900     		movs	r1, r3
  95 0068 0223     		movs	r3, #2
  96 006a 1A00     		movs	r2, r3
  97 006c FFF7FEFF 		bl	memcpy
  49:main.c        ****  
  50:main.c        ****     
  51:main.c        ****     int status = I2C_1_I2CMasterWriteBuf(ADDR, (uint8 *) write_buff, 2, I2C_1_I2C_MODE_COMPLETE_XFE
  98              		.loc 1 51 0
  99 0070 0823     		movs	r3, #8
 100 0072 F918     		adds	r1, r7, r3
 101 0074 0023     		movs	r3, #0
 102 0076 0222     		movs	r2, #2
 103 0078 7020     		movs	r0, #112
 104 007a FFF7FEFF 		bl	I2C_1_I2CMasterWriteBuf
 105 007e 0300     		movs	r3, r0
 106 0080 FB60     		str	r3, [r7, #12]
  52:main.c        ****     if(status == I2C_1_I2C_MSTR_NO_ERROR){
 107              		.loc 1 52 0
 108 0082 FB68     		ldr	r3, [r7, #12]
 109 0084 002B     		cmp	r3, #0
 110 0086 05D1     		bne	.L2
  53:main.c        ****         RED_Write(0); 
 111              		.loc 1 53 0
 112 0088 0020     		movs	r0, #0
 113 008a FFF7FEFF 		bl	RED_Write
  54:main.c        ****         CyDelay(200);
 114              		.loc 1 54 0
 115 008e C820     		movs	r0, #200
 116 0090 FFF7FEFF 		bl	CyDelay
 117              	.L2:
ARM GAS  C:\Users\K-Narf\AppData\Local\Temp\cc1QIEPb.s 			page 4


  55:main.c        ****     }
  56:main.c        ****     if(status == I2C_1_I2C_MSTR_BUS_BUSY){
 118              		.loc 1 56 0
 119 0094 FB68     		ldr	r3, [r7, #12]
 120 0096 082B     		cmp	r3, #8
 121 0098 08D1     		bne	.L3
  57:main.c        ****         RED_Write(0); 
 122              		.loc 1 57 0
 123 009a 0020     		movs	r0, #0
 124 009c FFF7FEFF 		bl	RED_Write
  58:main.c        ****         GREEN_Write(0);
 125              		.loc 1 58 0
 126 00a0 0020     		movs	r0, #0
 127 00a2 FFF7FEFF 		bl	GREEN_Write
  59:main.c        ****         CyDelay(200);
 128              		.loc 1 59 0
 129 00a6 C820     		movs	r0, #200
 130 00a8 FFF7FEFF 		bl	CyDelay
 131              	.L3:
  60:main.c        ****     }
  61:main.c        ****     if(status == I2C_1_I2C_MSTR_NOT_READY){
 132              		.loc 1 61 0
 133 00ac FB68     		ldr	r3, [r7, #12]
 134 00ae 042B     		cmp	r3, #4
 135 00b0 0BD1     		bne	.L4
  62:main.c        ****         RED_Write(0); 
 136              		.loc 1 62 0
 137 00b2 0020     		movs	r0, #0
 138 00b4 FFF7FEFF 		bl	RED_Write
  63:main.c        ****         GREEN_Write(0);
 139              		.loc 1 63 0
 140 00b8 0020     		movs	r0, #0
 141 00ba FFF7FEFF 		bl	GREEN_Write
  64:main.c        ****         BLUE_Write(0);
 142              		.loc 1 64 0
 143 00be 0020     		movs	r0, #0
 144 00c0 FFF7FEFF 		bl	BLUE_Write
  65:main.c        ****         CyDelay(200);
 145              		.loc 1 65 0
 146 00c4 C820     		movs	r0, #200
 147 00c6 FFF7FEFF 		bl	CyDelay
 148              	.L4:
  66:main.c        ****     }
  67:main.c        ****     RED_Write(1); 
 149              		.loc 1 67 0
 150 00ca 0120     		movs	r0, #1
 151 00cc FFF7FEFF 		bl	RED_Write
  68:main.c        ****     GREEN_Write(1);
 152              		.loc 1 68 0
 153 00d0 0120     		movs	r0, #1
 154 00d2 FFF7FEFF 		bl	GREEN_Write
  69:main.c        ****     BLUE_Write(1);
 155              		.loc 1 69 0
 156 00d6 0120     		movs	r0, #1
 157 00d8 FFF7FEFF 		bl	BLUE_Write
  70:main.c        ****     while((I2C_1_I2CMasterStatus() & I2C_1_I2C_MSTAT_WR_CMPLT)){}
 158              		.loc 1 70 0
ARM GAS  C:\Users\K-Narf\AppData\Local\Temp\cc1QIEPb.s 			page 5


 159 00dc C046     		nop
 160              	.L5:
 161              		.loc 1 70 0 is_stmt 0 discriminator 1
 162 00de FFF7FEFF 		bl	I2C_1_I2CMasterStatus
 163 00e2 0200     		movs	r2, r0
 164 00e4 0223     		movs	r3, #2
 165 00e6 1340     		ands	r3, r2
 166 00e8 F9D1     		bne	.L5
  71:main.c        ****     write_buff[0] = REG_INPUT;
 167              		.loc 1 71 0 is_stmt 1
 168 00ea 0823     		movs	r3, #8
 169 00ec FB18     		adds	r3, r7, r3
 170 00ee 0022     		movs	r2, #0
 171 00f0 1A70     		strb	r2, [r3]
  72:main.c        ****     uint8 read_buff[1] = {0};
 172              		.loc 1 72 0
 173 00f2 3B1D     		adds	r3, r7, #4
 174 00f4 0022     		movs	r2, #0
 175 00f6 1A70     		strb	r2, [r3]
 176              	.L12:
  73:main.c        ****     for(;;)
  74:main.c        ****     {
  75:main.c        ****     I2C_1_I2CMasterWriteBuf(ADDR, (uint8 *) write_buff, 1, I2C_1_I2C_MODE_NO_STOP);    
 177              		.loc 1 75 0
 178 00f8 0823     		movs	r3, #8
 179 00fa F918     		adds	r1, r7, r3
 180 00fc 0223     		movs	r3, #2
 181 00fe 0122     		movs	r2, #1
 182 0100 7020     		movs	r0, #112
 183 0102 FFF7FEFF 		bl	I2C_1_I2CMasterWriteBuf
  76:main.c        ****     status = I2C_1_I2CMasterReadBuf(ADDR, (uint8 *) read_buff, 1, I2C_1_I2C_MODE_COMPLETE_XFER);
 184              		.loc 1 76 0
 185 0106 391D     		adds	r1, r7, #4
 186 0108 0023     		movs	r3, #0
 187 010a 0122     		movs	r2, #1
 188 010c 7020     		movs	r0, #112
 189 010e FFF7FEFF 		bl	I2C_1_I2CMasterReadBuf
 190 0112 0300     		movs	r3, r0
 191 0114 FB60     		str	r3, [r7, #12]
  77:main.c        ****     if(status == I2C_1_I2C_MSTR_NO_ERROR){
 192              		.loc 1 77 0
 193 0116 FB68     		ldr	r3, [r7, #12]
 194 0118 002B     		cmp	r3, #0
 195 011a 05D1     		bne	.L6
  78:main.c        ****         RED_Write(0); 
 196              		.loc 1 78 0
 197 011c 0020     		movs	r0, #0
 198 011e FFF7FEFF 		bl	RED_Write
  79:main.c        ****         CyDelay(200);
 199              		.loc 1 79 0
 200 0122 C820     		movs	r0, #200
 201 0124 FFF7FEFF 		bl	CyDelay
 202              	.L6:
  80:main.c        ****     }
  81:main.c        ****     if(status == I2C_1_I2C_MSTR_BUS_BUSY){
 203              		.loc 1 81 0
 204 0128 FB68     		ldr	r3, [r7, #12]
ARM GAS  C:\Users\K-Narf\AppData\Local\Temp\cc1QIEPb.s 			page 6


 205 012a 082B     		cmp	r3, #8
 206 012c 08D1     		bne	.L7
  82:main.c        ****         RED_Write(0); 
 207              		.loc 1 82 0
 208 012e 0020     		movs	r0, #0
 209 0130 FFF7FEFF 		bl	RED_Write
  83:main.c        ****         GREEN_Write(0);
 210              		.loc 1 83 0
 211 0134 0020     		movs	r0, #0
 212 0136 FFF7FEFF 		bl	GREEN_Write
  84:main.c        ****         CyDelay(200);
 213              		.loc 1 84 0
 214 013a C820     		movs	r0, #200
 215 013c FFF7FEFF 		bl	CyDelay
 216              	.L7:
  85:main.c        ****     }
  86:main.c        ****     if(status == I2C_1_I2C_MSTR_NOT_READY){
 217              		.loc 1 86 0
 218 0140 FB68     		ldr	r3, [r7, #12]
 219 0142 042B     		cmp	r3, #4
 220 0144 0BD1     		bne	.L13
  87:main.c        ****         RED_Write(0); 
 221              		.loc 1 87 0
 222 0146 0020     		movs	r0, #0
 223 0148 FFF7FEFF 		bl	RED_Write
  88:main.c        ****         GREEN_Write(0);
 224              		.loc 1 88 0
 225 014c 0020     		movs	r0, #0
 226 014e FFF7FEFF 		bl	GREEN_Write
  89:main.c        ****         BLUE_Write(0);
 227              		.loc 1 89 0
 228 0152 0020     		movs	r0, #0
 229 0154 FFF7FEFF 		bl	BLUE_Write
  90:main.c        ****         CyDelay(200);
 230              		.loc 1 90 0
 231 0158 C820     		movs	r0, #200
 232 015a FFF7FEFF 		bl	CyDelay
 233              	.L13:
  91:main.c        ****     }
  92:main.c        ****     while((I2C_1_I2CMasterStatus() & I2C_1_I2C_MSTAT_RD_CMPLT)){}
 234              		.loc 1 92 0
 235 015e C046     		nop
 236              	.L9:
 237              		.loc 1 92 0 is_stmt 0 discriminator 1
 238 0160 FFF7FEFF 		bl	I2C_1_I2CMasterStatus
 239 0164 0200     		movs	r2, r0
 240 0166 0123     		movs	r3, #1
 241 0168 1340     		ands	r3, r2
 242 016a F9D1     		bne	.L9
  93:main.c        ****     
  94:main.c        ****     
  95:main.c        ****     if(read_buff[0] == 0){RED_Write(0);}
 243              		.loc 1 95 0 is_stmt 1
 244 016c 3B1D     		adds	r3, r7, #4
 245 016e 1B78     		ldrb	r3, [r3]
 246 0170 002B     		cmp	r3, #0
 247 0172 03D1     		bne	.L10
ARM GAS  C:\Users\K-Narf\AppData\Local\Temp\cc1QIEPb.s 			page 7


 248              		.loc 1 95 0 is_stmt 0 discriminator 1
 249 0174 0020     		movs	r0, #0
 250 0176 FFF7FEFF 		bl	RED_Write
 251 017a 08E0     		b	.L11
 252              	.L10:
  96:main.c        ****     else if ((read_buff[0] & 0x01)==1){BLUE_Write(0);}      //PIN 0
 253              		.loc 1 96 0 is_stmt 1
 254 017c 3B1D     		adds	r3, r7, #4
 255 017e 1B78     		ldrb	r3, [r3]
 256 0180 1A00     		movs	r2, r3
 257 0182 0123     		movs	r3, #1
 258 0184 1340     		ands	r3, r2
 259 0186 02D0     		beq	.L11
 260              		.loc 1 96 0 is_stmt 0 discriminator 1
 261 0188 0020     		movs	r0, #0
 262 018a FFF7FEFF 		bl	BLUE_Write
 263              	.L11:
  97:main.c        ****     else if((read_buff[0]&0x02)==1){GREEN_Write(0);}       // PIN 1
  98:main.c        ****     else if((read_buff[0]&0x04)==1){GREEN_Write(0); BLUE_Write(0);} //Cyan    PIN 2
  99:main.c        ****     else if((read_buff[0]&0x08)==1){GREEN_Write(0); RED_Write(0); } //yellow   PIN 3
 100:main.c        ****     else if((read_buff[0]&0x10)==1){BLUE_Write(0); RED_Write(0); } //purple   PIN 4
 101:main.c        ****     
 102:main.c        ****     CyDelay(200);
 264              		.loc 1 102 0 is_stmt 1
 265 018e C820     		movs	r0, #200
 266 0190 FFF7FEFF 		bl	CyDelay
 103:main.c        ****     RED_Write(1);
 267              		.loc 1 103 0
 268 0194 0120     		movs	r0, #1
 269 0196 FFF7FEFF 		bl	RED_Write
 104:main.c        ****     GREEN_Write(1);
 270              		.loc 1 104 0
 271 019a 0120     		movs	r0, #1
 272 019c FFF7FEFF 		bl	GREEN_Write
 105:main.c        ****     BLUE_Write(1);
 273              		.loc 1 105 0
 274 01a0 0120     		movs	r0, #1
 275 01a2 FFF7FEFF 		bl	BLUE_Write
 106:main.c        ****     
 107:main.c        ****     
 108:main.c        ****     }
 276              		.loc 1 108 0
 277 01a6 A7E7     		b	.L12
 278              	.L15:
 279              		.align	2
 280              	.L14:
 281 01a8 00000000 		.word	.LC0
 282              		.cfi_endproc
 283              	.LFE35:
 284              		.size	main, .-main
 285              		.text
 286              	.Letext0:
 287              		.file 2 "Generated_Source\\PSoC4/cytypes.h"